target datalayout = "e-m:e-p270:32:32-p271:32:32-p272:64:64-i64:64-i128:128-f80:128-n8:16:32:64-S128"
target triple = "x86_64-pc-linux-gnu"

%struct.Map_TimeStruct_t_ = type { float, float, float }
%struct.Map_HashTableStruct_t_ = type { ptr, i32, i32, ptr }
%struct.Map_HashEntryStruct_t_ = type { [2 x i32], i32, ptr, ptr }
%struct.Map_SuperStruct_t_ = type { i32, i32, [4 x i8], i32, [6 x ptr], ptr, [2 x i32], [6 x %struct.Map_TimeStruct_t_], [6 x %struct.Map_TimeStruct_t_], %struct.Map_TimeStruct_t_, float, ptr, ptr }

; Function Attrs: nounwind uwtable
define i32 @Map_SuperTableInsertC(ptr noundef %0, ptr noundef %1, ptr noundef %2) #0 {
  %4 = alloca ptr, align 8
  %5 = alloca ptr, align 8
  %6 = alloca ptr, align 8
  %7 = alloca ptr, align 8
  %8 = alloca i32, align 4
  store ptr %0, ptr %4, align 8
  store ptr %1, ptr %5, align 8
  store ptr %2, ptr %6, align 8
  %9 = load ptr, ptr %4, align 8
  %10 = getelementptr inbounds %struct.Map_HashTableStruct_t_, ptr %9, i32 0, i32 2
  %11 = load i32, ptr %10, align 4
  %12 = load ptr, ptr %4, align 8
  %13 = getelementptr inbounds %struct.Map_HashTableStruct_t_, ptr %12, i32 0, i32 1
  %14 = load i32, ptr %13, align 8
  %15 = mul nsw i32 2, %14
  %16 = icmp sge i32 %11, %15
  br i1 %16, label %17, label %19

17:                                               ; preds = %3
  %18 = load ptr, ptr %4, align 8
  call void @Map_SuperTableResize(ptr noundef %18)
  br label %19

19:                                               ; preds = %17, %3
  %20 = load ptr, ptr %5, align 8
  %21 = getelementptr inbounds i32, ptr %20, i64 0
  %22 = load i32, ptr %21, align 4
  %23 = load ptr, ptr %5, align 8
  %24 = getelementptr inbounds i32, ptr %23, i64 1
  %25 = load i32, ptr %24, align 4
  %26 = mul i32 2003, %25
  %27 = add i32 %22, %26
  %28 = load ptr, ptr %4, align 8
  %29 = getelementptr inbounds %struct.Map_HashTableStruct_t_, ptr %28, i32 0, i32 1
  %30 = load i32, ptr %29, align 8
  %31 = urem i32 %27, %30
  store i32 %31, ptr %8, align 4
  %32 = load ptr, ptr %4, align 8
  %33 = getelementptr inbounds %struct.Map_HashTableStruct_t_, ptr %32, i32 0, i32 0
  %34 = load ptr, ptr %33, align 8
  %35 = load i32, ptr %8, align 4
  %36 = zext i32 %35 to i64
  %37 = getelementptr inbounds ptr, ptr %34, i64 %36
  %38 = load ptr, ptr %37, align 8
  store ptr %38, ptr %7, align 8
  br label %39

39:                                               ; preds = %62, %19
  %40 = load ptr, ptr %7, align 8
  %41 = icmp ne ptr %40, null
  br i1 %41, label %42, label %66

42:                                               ; preds = %39
  %43 = load ptr, ptr %7, align 8
  %44 = getelementptr inbounds %struct.Map_HashEntryStruct_t_, ptr %43, i32 0, i32 0
  %45 = getelementptr inbounds [2 x i32], ptr %44, i64 0, i64 0
  %46 = load i32, ptr %45, align 8
  %47 = load ptr, ptr %5, align 8
  %48 = getelementptr inbounds i32, ptr %47, i64 0
  %49 = load i32, ptr %48, align 4
  %50 = icmp eq i32 %46, %49
  br i1 %50, label %51, label %61

51:                                               ; preds = %42
  %52 = load ptr, ptr %7, align 8
  %53 = getelementptr inbounds %struct.Map_HashEntryStruct_t_, ptr %52, i32 0, i32 0
  %54 = getelementptr inbounds [2 x i32], ptr %53, i64 0, i64 1
  %55 = load i32, ptr %54, align 4
  %56 = load ptr, ptr %5, align 8
  %57 = getelementptr inbounds i32, ptr %56, i64 1
  %58 = load i32, ptr %57, align 4
  %59 = icmp eq i32 %55, %58
  br i1 %59, label %60, label %61

60:                                               ; preds = %51
  br label %66

61:                                               ; preds = %51, %42
  br label %62

62:                                               ; preds = %61
  %63 = load ptr, ptr %7, align 8
  %64 = getelementptr inbounds %struct.Map_HashEntryStruct_t_, ptr %63, i32 0, i32 3
  %65 = load ptr, ptr %64, align 8
  store ptr %65, ptr %7, align 8
  br label %39, !llvm.loop !7

66:                                               ; preds = %60, %39
  %67 = load ptr, ptr %7, align 8
  %68 = icmp eq ptr %67, null
  br i1 %68, label %69, label %107

69:                                               ; preds = %66
  %70 = load ptr, ptr %4, align 8
  %71 = getelementptr inbounds %struct.Map_HashTableStruct_t_, ptr %70, i32 0, i32 3
  %72 = load ptr, ptr %71, align 8
  %73 = call ptr @Extra_MmFixedEntryFetch(ptr noundef %72)
  store ptr %73, ptr %7, align 8
  %74 = load ptr, ptr %7, align 8
  call void @llvm.memset.p0.i64(ptr align 8 %74, i8 0, i64 32, i1 false)
  %75 = load ptr, ptr %5, align 8
  %76 = getelementptr inbounds i32, ptr %75, i64 0
  %77 = load i32, ptr %76, align 4
  %78 = load ptr, ptr %7, align 8
  %79 = getelementptr inbounds %struct.Map_HashEntryStruct_t_, ptr %78, i32 0, i32 0
  %80 = getelementptr inbounds [2 x i32], ptr %79, i64 0, i64 0
  store i32 %77, ptr %80, align 8
  %81 = load ptr, ptr %5, align 8
  %82 = getelementptr inbounds i32, ptr %81, i64 1
  %83 = load i32, ptr %82, align 4
  %84 = load ptr, ptr %7, align 8
  %85 = getelementptr inbounds %struct.Map_HashEntryStruct_t_, ptr %84, i32 0, i32 0
  %86 = getelementptr inbounds [2 x i32], ptr %85, i64 0, i64 1
  store i32 %83, ptr %86, align 4
  %87 = load ptr, ptr %4, align 8
  %88 = getelementptr inbounds %struct.Map_HashTableStruct_t_, ptr %87, i32 0, i32 0
  %89 = load ptr, ptr %88, align 8
  %90 = load i32, ptr %8, align 4
  %91 = zext i32 %90 to i64
  %92 = getelementptr inbounds ptr, ptr %89, i64 %91
  %93 = load ptr, ptr %92, align 8
  %94 = load ptr, ptr %7, align 8
  %95 = getelementptr inbounds %struct.Map_HashEntryStruct_t_, ptr %94, i32 0, i32 3
  store ptr %93, ptr %95, align 8
  %96 = load ptr, ptr %7, align 8
  %97 = load ptr, ptr %4, align 8
  %98 = getelementptr inbounds %struct.Map_HashTableStruct_t_, ptr %97, i32 0, i32 0
  %99 = load ptr, ptr %98, align 8
  %100 = load i32, ptr %8, align 4
  %101 = zext i32 %100 to i64
  %102 = getelementptr inbounds ptr, ptr %99, i64 %101
  store ptr %96, ptr %102, align 8
  %103 = load ptr, ptr %4, align 8
  %104 = getelementptr inbounds %struct.Map_HashTableStruct_t_, ptr %103, i32 0, i32 2
  %105 = load i32, ptr %104, align 4
  %106 = add nsw i32 %105, 1
  store i32 %106, ptr %104, align 4
  br label %107

107:                                              ; preds = %69, %66
  %108 = load ptr, ptr %7, align 8
  %109 = getelementptr inbounds %struct.Map_HashEntryStruct_t_, ptr %108, i32 0, i32 2
  %110 = load ptr, ptr %109, align 8
  %111 = load ptr, ptr %6, align 8
  %112 = getelementptr inbounds %struct.Map_SuperStruct_t_, ptr %111, i32 0, i32 12
  store ptr %110, ptr %112, align 8
  %113 = load ptr, ptr %6, align 8
  %114 = load ptr, ptr %7, align 8
  %115 = getelementptr inbounds %struct.Map_HashEntryStruct_t_, ptr %114, i32 0, i32 2
  store ptr %113, ptr %115, align 8
  ret i32 0
}