; Function Attrs: nounwind uwtable
define noundef i32 @Map_SuperTableInsertC(ptr noundef captures(none) %0, ptr noundef readonly captures(none) %1, ptr noundef %2) local_unnamed_addr #5 {
  %4 = getelementptr inbounds nuw i8, ptr %0, i64 12
  %5 = load i32, ptr %4, align 4
  %6 = getelementptr inbounds nuw i8, ptr %0, i64 8
  %7 = load i32, ptr %6, align 8
  %8 = shl nsw i32 %7, 1
  %.not = icmp slt i32 %5, %8
  br i1 %.not, label %10, label %9

9:                                                ; preds = %3
  tail call fastcc void @Map_SuperTableResize(ptr noundef nonnull %0)
  %.pre = load i32, ptr %6, align 8
  br label %10

10:                                               ; preds = %9, %3
  %11 = phi i32 [ %.pre, %9 ], [ %7, %3 ]
  %12 = load i32, ptr %1, align 4
  %13 = getelementptr inbounds nuw i8, ptr %1, i64 4
  %14 = load i32, ptr %13, align 4
  %15 = mul i32 %14, 2003
  %16 = add i32 %15, %12
  %17 = urem i32 %16, %11
  %18 = load ptr, ptr %0, align 8
  %19 = zext i32 %17 to i64
  %20 = getelementptr inbounds nuw ptr, ptr %18, i64 %19
  %.033 = load ptr, ptr %20, align 8
  %cond34 = icmp eq ptr %.033, null
  br i1 %cond34, label %._crit_edge, label %.lr.ph

.lr.ph:                                           ; preds = %10, %27
  %.035 = phi ptr [ %.0, %27 ], [ %.033, %10 ]
  %21 = load i32, ptr %.035, align 8
  %22 = icmp eq i32 %21, %12
  br i1 %22, label %23, label %27

23:                                               ; preds = %.lr.ph
  %24 = getelementptr inbounds nuw i8, ptr %.035, i64 4
  %25 = load i32, ptr %24, align 4
  %26 = icmp eq i32 %25, %14
  br i1 %26, label %.loopexit, label %27

27:                                               ; preds = %.lr.ph, %23
  %28 = getelementptr inbounds nuw i8, ptr %.035, i64 24
  %.0 = load ptr, ptr %28, align 8
  %cond = icmp eq ptr %.0, null
  br i1 %cond, label %._crit_edge, label %.lr.ph, !llvm.loop !7

._crit_edge:                                      ; preds = %27, %10
  %29 = getelementptr inbounds nuw i8, ptr %0, i64 16
  %30 = load ptr, ptr %29, align 8
  %31 = tail call ptr @Extra_MmFixedEntryFetch(ptr noundef %30) #15
  tail call void @llvm.memset.p0.i64(ptr noundef nonnull align 8 dereferenceable(32) %31, i8 0, i64 32, i1 false)
  %32 = load i32, ptr %1, align 4
  store i32 %32, ptr %31, align 8
  %33 = load i32, ptr %13, align 4
  %34 = getelementptr inbounds nuw i8, ptr %31, i64 4
  store i32 %33, ptr %34, align 4
  %35 = load ptr, ptr %0, align 8
  %36 = getelementptr inbounds nuw ptr, ptr %35, i64 %19
  %37 = load ptr, ptr %36, align 8
  %38 = getelementptr inbounds nuw i8, ptr %31, i64 24
  store ptr %37, ptr %38, align 8
  %39 = load ptr, ptr %0, align 8
  %40 = getelementptr inbounds nuw ptr, ptr %39, i64 %19
  store ptr %31, ptr %40, align 8
  %41 = load i32, ptr %4, align 4
  %42 = add nsw i32 %41, 1
  store i32 %42, ptr %4, align 4
  br label %.loopexit

.loopexit:                                        ; preds = %23, %._crit_edge
  %.1 = phi ptr [ %31, %._crit_edge ], [ %.035, %23 ]
  %43 = getelementptr inbounds nuw i8, ptr %.1, i64 16
  %44 = load ptr, ptr %43, align 8
  %45 = getelementptr inbounds nuw i8, ptr %2, i64 248
  store ptr %44, ptr %45, align 8
  store ptr %2, ptr %43, align 8
  ret i32 0
}